target datalayout = "e-m:e-p270:32:32-p271:32:32-p272:64:64-i64:64-i128:128-f80:128-n8:16:32:64-S128"
target triple = "x86_64-pc-linux-gnu"

%struct._e_guid_t = type { i32, i16, i16, [8 x i8] }
%struct.nstime_t = type { i64, i32 }
%struct._packet_info = type { ptr, ptr, i32, i32, %struct.nstime_t, %struct.nstime_t, %struct.nstime_t, i8, ptr, ptr, ptr, ptr, %struct._address, %struct._address, %struct._address, %struct._address, %struct._address, %struct._address, i32, ptr, i8, [3 x i8], %struct.anon, i32, i32, i32, i32, ptr, i8, ptr, ptr, i16, i16, i32, i32, i16, i32, i32, ptr, ptr, ptr, i8, i8, i16, i16, i16, i32, i16, i16, ptr, ptr, ptr, ptr, ptr, i32, i32 }
%struct._address = type { i32, i32, ptr, ptr }
%struct.anon = type { i8, [3 x i8] }
%struct._smb2_info_t = type { i16, i32, i32, i32, i64, i64, i32, ptr, ptr, ptr, ptr, ptr, ptr, ptr }
%struct._smb2_saved_info_t = type { i8, i8, i64, i32, i32, %struct.nstime_t, ptr, ptr, ptr, %struct._e_ctx_hnd, ptr, i64, i32, ptr, i32, i32, i16, ptr, %struct._e_guid_t, i32, i32, ptr }
%struct._e_ctx_hnd = type { i32, %struct._e_guid_t }

@proto_mswsp = internal global i32 0, align 4
@.str.1439 = private unnamed_addr constant [15 x i8] c"File: MsFteWds\00", align 1
@SMB2 = internal global i32 2, align 4

; Function Attrs: null_pointer_is_valid sspstrong uwtable
define internal i32 @dissect_mswsp_smb2(ptr noundef %0, ptr noundef %1, ptr noundef %2, ptr noundef %3) #0 {
  %5 = alloca i32, align 4
  %6 = alloca ptr, align 8
  %7 = alloca ptr, align 8
  %8 = alloca ptr, align 8
  %9 = alloca ptr, align 8
  %10 = alloca ptr, align 8
  %11 = alloca i8, align 1
  %12 = alloca ptr, align 8
  %13 = alloca i32, align 4
  %14 = alloca i32, align 4
  %15 = alloca i32, align 4
  store ptr %0, ptr %6, align 8
  store ptr %1, ptr %7, align 8
  store ptr %2, ptr %8, align 8
  store ptr %3, ptr %9, align 8
  call void @llvm.lifetime.start.p0(i64 8, ptr %10) #11
  %16 = load ptr, ptr %9, align 8
  store ptr %16, ptr %10, align 8
  call void @llvm.lifetime.start.p0(i64 1, ptr %11) #11
  call void @llvm.lifetime.start.p0(i64 8, ptr %12) #11
  store ptr null, ptr %12, align 8
  call void @llvm.lifetime.start.p0(i64 4, ptr %13) #11
  store i32 0, ptr %13, align 4
  call void @llvm.lifetime.start.p0(i64 4, ptr %14) #11
  store i32 0, ptr %14, align 4
  %17 = load ptr, ptr %10, align 8
  %18 = icmp ne ptr %17, null
  br i1 %18, label %20, label %19

19:                                               ; preds = %4
  store i32 0, ptr %5, align 4
  store i32 1, ptr %15, align 4
  br label %60

20:                                               ; preds = %4
  %21 = load ptr, ptr %10, align 8
  %22 = getelementptr inbounds nuw %struct._smb2_info_t, ptr %21, i32 0, i32 9
  %23 = load ptr, ptr %22, align 8
  %24 = icmp ne ptr %23, null
  br i1 %24, label %25, label %34

25:                                               ; preds = %20
  %26 = load ptr, ptr %10, align 8
  %27 = getelementptr inbounds nuw %struct._smb2_info_t, ptr %26, i32 0, i32 9
  %28 = load ptr, ptr %27, align 8
  %29 = getelementptr inbounds nuw %struct._smb2_saved_info_t, ptr %28, i32 0, i32 9
  %30 = load ptr, ptr %7, align 8
  %31 = getelementptr inbounds nuw %struct._packet_info, ptr %30, i32 0, i32 3
  %32 = load i32, ptr %31, align 4
  %33 = call zeroext i1 @dcerpc_fetch_polhnd_data(ptr noundef %29, ptr noundef %12, ptr noundef null, ptr noundef %13, ptr noundef %14, i32 noundef %32)
  br label %34

34:                                               ; preds = %25, %20
  %35 = load ptr, ptr %12, align 8
  %36 = icmp ne ptr %35, null
  br i1 %36, label %37, label %41

37:                                               ; preds = %34
  %38 = load ptr, ptr %12, align 8
  %39 = call i32 @g_ascii_strcasecmp(ptr noundef %38, ptr noundef @.str.1439)
  %40 = icmp ne i32 %39, 0
  br i1 %40, label %41, label %42

41:                                               ; preds = %37, %34
  store i32 0, ptr %5, align 4
  store i32 1, ptr %15, align 4
  br label %60

42:                                               ; preds = %37
  %43 = load ptr, ptr %10, align 8
  %44 = getelementptr inbounds nuw %struct._smb2_info_t, ptr %43, i32 0, i32 6
  %45 = load i32, ptr %44, align 8
  %46 = and i32 %45, 1
  %47 = icmp ne i32 %46, 0
  %48 = xor i1 %47, true
  %49 = zext i1 %48 to i8
  store i8 %49, ptr %11, align 1
  %50 = call ptr @wmem_file_scope()
  %51 = load ptr, ptr %7, align 8
  %52 = load i32, ptr @proto_mswsp, align 4
  call void @p_add_proto_data(ptr noundef %50, ptr noundef %51, i32 noundef %52, i32 noundef 0, ptr noundef @SMB2)
  %53 = load ptr, ptr %6, align 8
  %54 = load ptr, ptr %7, align 8
  %55 = load ptr, ptr %8, align 8
  %56 = load i8, ptr %11, align 1, !range !8, !noundef !9
  %57 = trunc i8 %56 to i1
  %58 = load ptr, ptr %9, align 8
  %59 = call i32 @dissect_mswsp(ptr noundef %53, ptr noundef %54, ptr noundef %55, i1 noundef zeroext %57, ptr noundef %58)
  store i32 %59, ptr %5, align 4
  store i32 1, ptr %15, align 4
  br label %60

60:                                               ; preds = %42, %41, %19
  call void @llvm.lifetime.end.p0(i64 4, ptr %14) #11
  call void @llvm.lifetime.end.p0(i64 4, ptr %13) #11
  call void @llvm.lifetime.end.p0(i64 8, ptr %12) #11
  call void @llvm.lifetime.end.p0(i64 1, ptr %11) #11
  call void @llvm.lifetime.end.p0(i64 8, ptr %10) #11
  %61 = load i32, ptr %5, align 4
  ret i32 %61
}

; Function Attrs: null_pointer_is_valid sspstrong uwtable
define internal zeroext i1 @dissect_mswsp_smb2_heur(ptr noundef %0, ptr noundef %1, ptr noundef %2, ptr noundef %3) #0 {
  %5 = alloca ptr, align 8
  %6 = alloca ptr, align 8
  %7 = alloca ptr, align 8
  %8 = alloca ptr, align 8
  store ptr %0, ptr %5, align 8
  store ptr %1, ptr %6, align 8
  store ptr %2, ptr %7, align 8
  store ptr %3, ptr %8, align 8
  %9 = load ptr, ptr %5, align 8
  %10 = load ptr, ptr %6, align 8
  %11 = load ptr, ptr %7, align 8
  %12 = load ptr, ptr %8, align 8
  %13 = call i32 @dissect_mswsp_smb2(ptr noundef %9, ptr noundef %10, ptr noundef %11, ptr noundef %12)
  %14 = icmp sgt i32 %13, 0
  ret i1 %14
}