; Function Attrs: null_pointer_is_valid sspstrong uwtable
define internal zeroext i1 @dissect_mswsp_smb2_heur(ptr noundef %0, ptr noundef %1, ptr noundef %2, ptr noundef readonly captures(address_is_null) %3) #0 {
  %5 = alloca ptr, align 8
  %6 = alloca i32, align 4
  %7 = alloca i32, align 4
  call void @llvm.lifetime.start.p0(i64 8, ptr nonnull %5) #11
  store ptr null, ptr %5, align 8
  call void @llvm.lifetime.start.p0(i64 4, ptr nonnull %6) #11
  store i32 0, ptr %6, align 4
  call void @llvm.lifetime.start.p0(i64 4, ptr nonnull %7) #11
  store i32 0, ptr %7, align 4
  %.not.i = icmp eq ptr %3, null
  br i1 %.not.i, label %dissect_mswsp_smb2.exit, label %8

8:                                                ; preds = %4
  %9 = getelementptr inbounds nuw i8, ptr %3, i64 56
  %10 = load ptr, ptr %9, align 8
  %.not15.i = icmp eq ptr %10, null
  br i1 %.not15.i, label %dissect_mswsp_smb2.exit, label %11

11:                                               ; preds = %8
  %12 = getelementptr inbounds nuw i8, ptr %10, i64 64
  %13 = getelementptr inbounds nuw i8, ptr %1, i64 20
  %14 = load i32, ptr %13, align 4
  %15 = call zeroext i1 @dcerpc_fetch_polhnd_data(ptr noundef nonnull %12, ptr noundef nonnull %5, ptr noundef null, ptr noundef nonnull %6, ptr noundef nonnull %7, i32 noundef %14)
  %.pre.i = load ptr, ptr %5, align 8
  %.not16.i = icmp eq ptr %.pre.i, null
  br i1 %.not16.i, label %dissect_mswsp_smb2.exit, label %16

16:                                               ; preds = %11
  %17 = call i32 @g_ascii_strcasecmp(ptr noundef nonnull %.pre.i, ptr noundef nonnull @.str.1439)
  %.not17.i = icmp eq i32 %17, 0
  br i1 %.not17.i, label %18, label %dissect_mswsp_smb2.exit

18:                                               ; preds = %16
  %19 = getelementptr inbounds nuw i8, ptr %3, i64 32
  %20 = load i32, ptr %19, align 8
  %21 = and i32 %20, 1
  %.not18.i = icmp eq i32 %21, 0
  %22 = call ptr @wmem_file_scope()
  %23 = load i32, ptr @proto_mswsp, align 4
  call void @p_add_proto_data(ptr noundef %22, ptr noundef %1, i32 noundef %23, i32 noundef 0, ptr noundef nonnull @SMB2)
  %24 = call fastcc i32 @dissect_mswsp(ptr noundef %0, ptr noundef %1, ptr noundef %2, i1 noundef zeroext %.not18.i, ptr noundef nonnull readonly %3)
  %25 = icmp sgt i32 %24, 0
  br label %dissect_mswsp_smb2.exit

dissect_mswsp_smb2.exit:                          ; preds = %4, %8, %11, %16, %18
  %.0.i = phi i1 [ %25, %18 ], [ false, %4 ], [ false, %16 ], [ false, %11 ], [ false, %8 ]
  call void @llvm.lifetime.end.p0(i64 4, ptr nonnull %7) #11
  call void @llvm.lifetime.end.p0(i64 4, ptr nonnull %6) #11
  call void @llvm.lifetime.end.p0(i64 8, ptr nonnull %5) #11
  ret i1 %.0.i
}